target datalayout = "e-m:e-p270:32:32-p271:32:32-p272:64:64-i64:64-i128:128-f80:128-n8:16:32:64-S128"
target triple = "x86_64-pc-linux-gnu"

%class.ModelWriter = type <{ %"class.ncnn::Net", ptr, ptr, i8, [3 x i8], i32, i32, i32, i32, [4 x i8] }>
%"class.ncnn::Net" = type { ptr, %"class.ncnn::Option", ptr }
%"class.ncnn::Option" = type { i8, i32, ptr, ptr, i32, i8, i8, i8, i8, i8, i8, i8, i8, i8, i8, i8, i8, i8, i8, i8, i8, i8, i8, i8, i8, i32, i8, i8, i8, i8, i8, i8, i8, i8, i8, i8, i8, i8 }

@stderr = external global ptr, align 8
@.str.1 = private unnamed_addr constant [22 x i8] c"cutstart layer %d:%s\0A\00", align 1
@.str.2 = private unnamed_addr constant [35 x i8] c"not find target cutstart layer %s\0A\00", align 1
@.str.3 = private unnamed_addr constant [20 x i8] c"cutend layer %d:%s\0A\00", align 1
@.str.4 = private unnamed_addr constant [33 x i8] c"not find target cutend layer %s\0A\00", align 1

; Function Attrs: mustprogress uwtable
define dso_local noundef i32 @_ZN11ModelWriter12set_cutparamEPKcS1_(ptr noundef nonnull align 8 dereferenceable(116) %0, ptr noundef %1, ptr noundef %2) #3 align 2 {
  %4 = alloca i32, align 4
  %5 = alloca ptr, align 8
  %6 = alloca ptr, align 8
  %7 = alloca ptr, align 8
  %8 = alloca i32, align 4
  %9 = alloca i32, align 4
  %10 = alloca i32, align 4
  store ptr %0, ptr %5, align 8, !tbaa !5
  store ptr %1, ptr %6, align 8, !tbaa !10
  store ptr %2, ptr %7, align 8, !tbaa !10
  %11 = load ptr, ptr %5, align 8
  %12 = load ptr, ptr %6, align 8, !tbaa !10
  %13 = icmp ne ptr %12, null
  br i1 %13, label %14, label %34

14:                                               ; preds = %3
  call void @llvm.lifetime.start.p0(i64 4, ptr %8) #20
  %15 = load ptr, ptr %6, align 8, !tbaa !10
  %16 = call noundef i32 @_ZNK4ncnn3Net24find_layer_index_by_nameEPKc(ptr noundef nonnull align 8 dereferenceable(80) %11, ptr noundef %15)
  store i32 %16, ptr %8, align 4, !tbaa !50
  %17 = load i32, ptr %8, align 4, !tbaa !50
  %18 = icmp sge i32 %17, 0
  br i1 %18, label %19, label %26

19:                                               ; preds = %14
  %20 = load i32, ptr %8, align 4, !tbaa !50
  %21 = getelementptr inbounds nuw %class.ModelWriter, ptr %11, i32 0, i32 7
  store i32 %20, ptr %21, align 4, !tbaa !37
  %22 = load ptr, ptr @stderr, align 8, !tbaa !14
  %23 = load i32, ptr %8, align 4, !tbaa !50
  %24 = load ptr, ptr %6, align 8, !tbaa !10
  %25 = call i32 (ptr, ptr, ...) @fprintf(ptr noundef %22, ptr noundef @.str.1, i32 noundef %23, ptr noundef %24) #20
  br label %30

26:                                               ; preds = %14
  %27 = load ptr, ptr @stderr, align 8, !tbaa !14
  %28 = load ptr, ptr %6, align 8, !tbaa !10
  %29 = call i32 (ptr, ptr, ...) @fprintf(ptr noundef %27, ptr noundef @.str.2, ptr noundef %28) #20
  store i32 -1, ptr %4, align 4
  store i32 1, ptr %9, align 4
  br label %31

30:                                               ; preds = %19
  store i32 0, ptr %9, align 4
  br label %31

31:                                               ; preds = %30, %26
  call void @llvm.lifetime.end.p0(i64 4, ptr %8) #20
  %32 = load i32, ptr %9, align 4
  switch i32 %32, label %60 [
    i32 0, label %33
    i32 1, label %58
  ]

33:                                               ; preds = %31
  br label %34

34:                                               ; preds = %33, %3
  %35 = load ptr, ptr %7, align 8, !tbaa !10
  %36 = icmp ne ptr %35, null
  br i1 %36, label %37, label %57

37:                                               ; preds = %34
  call void @llvm.lifetime.start.p0(i64 4, ptr %10) #20
  %38 = load ptr, ptr %7, align 8, !tbaa !10
  %39 = call noundef i32 @_ZNK4ncnn3Net24find_layer_index_by_nameEPKc(ptr noundef nonnull align 8 dereferenceable(80) %11, ptr noundef %38)
  store i32 %39, ptr %10, align 4, !tbaa !50
  %40 = load i32, ptr %10, align 4, !tbaa !50
  %41 = icmp sge i32 %40, 0
  br i1 %41, label %42, label %49

42:                                               ; preds = %37
  %43 = load i32, ptr %10, align 4, !tbaa !50
  %44 = getelementptr inbounds nuw %class.ModelWriter, ptr %11, i32 0, i32 8
  store i32 %43, ptr %44, align 8, !tbaa !38
  %45 = load ptr, ptr @stderr, align 8, !tbaa !14
  %46 = load i32, ptr %10, align 4, !tbaa !50
  %47 = load ptr, ptr %7, align 8, !tbaa !10
  %48 = call i32 (ptr, ptr, ...) @fprintf(ptr noundef %45, ptr noundef @.str.3, i32 noundef %46, ptr noundef %47) #20
  br label %53

49:                                               ; preds = %37
  %50 = load ptr, ptr @stderr, align 8, !tbaa !14
  %51 = load ptr, ptr %7, align 8, !tbaa !10
  %52 = call i32 (ptr, ptr, ...) @fprintf(ptr noundef %50, ptr noundef @.str.4, ptr noundef %51) #20
  store i32 -1, ptr %4, align 4
  store i32 1, ptr %9, align 4
  br label %54

53:                                               ; preds = %42
  store i32 0, ptr %9, align 4
  br label %54

54:                                               ; preds = %53, %49
  call void @llvm.lifetime.end.p0(i64 4, ptr %10) #20
  %55 = load i32, ptr %9, align 4
  switch i32 %55, label %60 [
    i32 0, label %56
    i32 1, label %58
  ]

56:                                               ; preds = %54
  br label %57

57:                                               ; preds = %56, %34
  store i32 0, ptr %4, align 4
  br label %58

58:                                               ; preds = %57, %54, %31
  %59 = load i32, ptr %4, align 4
  ret i32 %59

60:                                               ; preds = %54, %31
  unreachable
}