; Function Attrs: mustprogress uwtable
define dso_local noundef range(i32 -1, 1) i32 @_ZN11ModelWriter12set_cutparamEPKcS1_(ptr noundef nonnull align 8 dereferenceable(116) %0, ptr noundef %1, ptr noundef %2) local_unnamed_addr #3 align 2 {
  %.not = icmp eq ptr %1, null
  br i1 %.not, label %13, label %4

4:                                                ; preds = %3
  %5 = tail call noundef i32 @_ZNK4ncnn3Net24find_layer_index_by_nameEPKc(ptr noundef nonnull align 8 dereferenceable(80) %0, ptr noundef nonnull %1)
  %6 = icmp slt i32 %5, 0
  br i1 %6, label %10, label %.thread

.thread:                                          ; preds = %4
  %7 = getelementptr inbounds nuw i8, ptr %0, i64 108
  store i32 %5, ptr %7, align 4, !tbaa !26
  %8 = load ptr, ptr @stderr, align 8, !tbaa !5
  %9 = tail call i32 (ptr, ptr, ...) @fprintf(ptr noundef %8, ptr noundef nonnull @.str.1, i32 noundef %5, ptr noundef nonnull %1) #27
  br label %13

10:                                               ; preds = %4
  %11 = load ptr, ptr @stderr, align 8, !tbaa !5
  %12 = tail call i32 (ptr, ptr, ...) @fprintf(ptr noundef %11, ptr noundef nonnull @.str.2, ptr noundef nonnull %1) #27
  br label %23

13:                                               ; preds = %.thread, %3
  %.not22 = icmp eq ptr %2, null
  br i1 %.not22, label %23, label %14

14:                                               ; preds = %13
  %15 = tail call noundef i32 @_ZNK4ncnn3Net24find_layer_index_by_nameEPKc(ptr noundef nonnull align 8 dereferenceable(80) %0, ptr noundef nonnull %2)
  %16 = icmp slt i32 %15, 0
  br i1 %16, label %20, label %.thread26

.thread26:                                        ; preds = %14
  %17 = getelementptr inbounds nuw i8, ptr %0, i64 112
  store i32 %15, ptr %17, align 8, !tbaa !27
  %18 = load ptr, ptr @stderr, align 8, !tbaa !5
  %19 = tail call i32 (ptr, ptr, ...) @fprintf(ptr noundef %18, ptr noundef nonnull @.str.3, i32 noundef %15, ptr noundef nonnull %2) #27
  br label %23

20:                                               ; preds = %14
  %21 = load ptr, ptr @stderr, align 8, !tbaa !5
  %22 = tail call i32 (ptr, ptr, ...) @fprintf(ptr noundef %21, ptr noundef nonnull @.str.4, ptr noundef nonnull %2) #27
  br label %23

23:                                               ; preds = %13, %.thread26, %20, %10
  %.2 = phi i32 [ -1, %10 ], [ -1, %20 ], [ 0, %.thread26 ], [ 0, %13 ]
  ret i32 %.2
}